; Function Attrs: mustprogress nofree norecurse nosync nounwind willreturn memory(read, argmem: readwrite, inaccessiblemem: none) uwtable
define dso_local range(i32 -6, 1) i32 @onigenc_utf16_32_get_ctype_code_range(i32 noundef %0, ptr noundef writeonly captures(none) initializes((0, 4)) %1, ptr noundef writeonly captures(none) %2) local_unnamed_addr #7 {
  store i32 0, ptr %1, align 4, !tbaa !17
  %4 = icmp ugt i32 %0, 605
  br i1 %4, label %5, label %12

5:                                                ; preds = %3
  %6 = add i32 %0, -606
  %7 = load i32, ptr @UserDefinedPropertyNum, align 4, !tbaa !17
  %8 = icmp slt i32 %6, %7
  br i1 %8, label %9, label %onigenc_unicode_ctype_code_range.exit

9:                                                ; preds = %5
  %10 = sext i32 %6 to i64
  %11 = getelementptr inbounds [20 x %struct.UserDefinedPropertyValue], ptr @UserDefinedPropertyRanges, i64 0, i64 %10, i32 1
  br label %.sink.split.i

12:                                               ; preds = %3
  %13 = zext nneg i32 %0 to i64
  %14 = getelementptr inbounds nuw [606 x ptr], ptr @CodeRanges, i64 0, i64 %13
  br label %.sink.split.i

.sink.split.i:                                    ; preds = %12, %9
  %.sink.in.i = phi ptr [ %11, %9 ], [ %14, %12 ]
  %.sink.i = load ptr, ptr %.sink.in.i, align 8, !tbaa !64
  store ptr %.sink.i, ptr %2, align 8, !tbaa !64
  br label %onigenc_unicode_ctype_code_range.exit

onigenc_unicode_ctype_code_range.exit:            ; preds = %5, %.sink.split.i
  %.1.i = phi i32 [ -6, %5 ], [ 0, %.sink.split.i ]
  ret i32 %.1.i
}